target datalayout = "e-m:e-p270:32:32-p271:32:32-p272:64:64-i64:64-i128:128-f80:128-n8:16:32:64-S128"
target triple = "x86_64-pc-linux-gnu"

%"class.pbrt::Bounds3" = type { %"class.pbrt::Point3", %"class.pbrt::Point3" }
%"class.pbrt::Point3" = type { %"class.pbrt::Tuple3" }
%"class.pbrt::Tuple3" = type { float, float, float }
%"class.std::vector" = type { %"struct.std::_Vector_base" }
%"struct.std::_Vector_base" = type { %"struct.std::_Vector_base<pbrt::Primitive, std::allocator<pbrt::Primitive>>::_Vector_impl" }
%"struct.std::_Vector_base<pbrt::Primitive, std::allocator<pbrt::Primitive>>::_Vector_impl" = type { %"struct.std::_Vector_base<pbrt::Primitive, std::allocator<pbrt::Primitive>>::_Vector_impl_data" }
%"struct.std::_Vector_base<pbrt::Primitive, std::allocator<pbrt::Primitive>>::_Vector_impl_data" = type { ptr, ptr, ptr }
%"class.pbrt::BVHAggregate" = type { i32, %"class.std::vector", i32, ptr }
%"struct.pbrt::LinearBVHNode" = type <{ %"class.pbrt::Bounds3", %union.anon, i16, i8, i8 }>
%union.anon = type { i32 }

@.str = private unnamed_addr constant [121 x i8] c"generated/home/dtcxzyw/WorkSpace/Projects/compilers/llvm-opt-benchmark/bench/pbrt-v4/pbrt-v4/src/pbrt/cpu/aggregates.cpp\00", align 1
@.str.10 = private unnamed_addr constant [17 x i8] c"Check failed: %s\00", align 1
@.str.31 = private unnamed_addr constant [6 x i8] c"nodes\00", align 1

; Function Attrs: mustprogress uwtable
define dso_local void @_ZNK4pbrt12BVHAggregate6BoundsEv(ptr dead_on_unwind noalias writable sret(%"class.pbrt::Bounds3") align 4 %0, ptr noundef nonnull align 8 dereferenceable(48) %1) #1 align 2 {
  %3 = alloca ptr, align 8
  store ptr %1, ptr %3, align 8, !tbaa !14
  %4 = load ptr, ptr %3, align 8
  %5 = getelementptr inbounds nuw %"class.pbrt::BVHAggregate", ptr %4, i32 0, i32 3
  %6 = load ptr, ptr %5, align 8, !tbaa !31
  %7 = icmp ne ptr %6, null
  br i1 %7, label %10, label %8

8:                                                ; preds = %2
  call void @_ZN4pbrt8LogFatalIJRA6_KcEEEvNS_8LogLevelEPS1_iS5_DpOT_(i32 noundef 2, ptr noundef @.str, i32 noundef 525, ptr noundef @.str.10, ptr noundef nonnull align 1 dereferenceable(6) @.str.31) #22
  unreachable

9:                                                ; No predecessors!
  br label %10

10:                                               ; preds = %9, %2
  %11 = getelementptr inbounds nuw %"class.pbrt::BVHAggregate", ptr %4, i32 0, i32 3
  %12 = load ptr, ptr %11, align 8, !tbaa !31
  %13 = getelementptr inbounds %"struct.pbrt::LinearBVHNode", ptr %12, i64 0
  %14 = getelementptr inbounds nuw %"struct.pbrt::LinearBVHNode", ptr %13, i32 0, i32 0
  call void @llvm.memcpy.p0.p0.i64(ptr align 4 %0, ptr align 32 %14, i64 24, i1 false)
  ret void
}