; Function Attrs: mustprogress uwtable
define dso_local void @_ZNK4pbrt12BVHAggregate6BoundsEv(ptr dead_on_unwind noalias writable writeonly sret(%"class.pbrt::Bounds3") align 4 captures(none) %0, ptr noundef nonnull readonly align 8 captures(none) dereferenceable(48) %1) local_unnamed_addr #2 align 2 {
  %3 = getelementptr inbounds nuw i8, ptr %1, i64 40
  %4 = load ptr, ptr %3, align 8, !tbaa !21
  %.not = icmp eq ptr %4, null
  br i1 %.not, label %5, label %6

5:                                                ; preds = %2
  tail call void @_ZN4pbrt8LogFatalIJRA6_KcEEEvNS_8LogLevelEPS1_iS5_DpOT_(i32 noundef 2, ptr noundef nonnull @.str, i32 noundef 525, ptr noundef nonnull @.str.10, ptr noundef nonnull align 1 dereferenceable(6) @.str.31) #30
  unreachable

6:                                                ; preds = %2
  tail call void @llvm.memcpy.p0.p0.i64(ptr noundef nonnull align 4 dereferenceable(24) %0, ptr noundef nonnull align 32 dereferenceable(24) %4, i64 24, i1 false)
  ret void
}